target datalayout = "e-m:e-p270:32:32-p271:32:32-p272:64:64-i64:64-i128:128-f80:128-n8:16:32:64-S128"
target triple = "x86_64-pc-linux-gnu"

%struct.cmsCIExyY = type { double, double, double }
%struct.cmsMAT3 = type { [3 x %struct.cmsVEC3] }
%struct.cmsVEC3 = type { [3 x double] }
%struct.cmsCIEXYZTRIPLE = type { %struct.cmsCIEXYZ, %struct.cmsCIEXYZ, %struct.cmsCIEXYZ }
%struct.cmsCIEXYZ = type { double, double, double }

@.str = private unnamed_addr constant [13 x i32] [i32 82, i32 71, i32 66, i32 32, i32 98, i32 117, i32 105, i32 108, i32 116, i32 45, i32 105, i32 110, i32 0], align 4

; Function Attrs: nounwind uwtable
define hidden ptr @cmsCreateRGBProfileTHR(ptr noundef %0, ptr noundef %1, ptr noundef %2, ptr noundef %3) #0 {
  %5 = alloca ptr, align 8
  %6 = alloca ptr, align 8
  %7 = alloca ptr, align 8
  %8 = alloca ptr, align 8
  %9 = alloca ptr, align 8
  %10 = alloca ptr, align 8
  %11 = alloca %struct.cmsMAT3, align 8
  %12 = alloca %struct.cmsCIEXYZTRIPLE, align 8
  %13 = alloca %struct.cmsCIExyY, align 8
  %14 = alloca %struct.cmsMAT3, align 8
  %15 = alloca %struct.cmsCIEXYZ, align 8
  store ptr %0, ptr %6, align 8
  store ptr %1, ptr %7, align 8
  store ptr %2, ptr %8, align 8
  store ptr %3, ptr %9, align 8
  %16 = load ptr, ptr %6, align 8
  %17 = call ptr @cmsCreateProfilePlaceholder(ptr noundef %16)
  store ptr %17, ptr %10, align 8
  %18 = load ptr, ptr %10, align 8
  %19 = icmp ne ptr %18, null
  br i1 %19, label %21, label %20

20:                                               ; preds = %4
  store ptr null, ptr %5, align 8
  br label %228

21:                                               ; preds = %4
  %22 = load ptr, ptr %10, align 8
  call void @cmsSetProfileVersion(ptr noundef %22, double noundef 4.400000e+00)
  %23 = load ptr, ptr %10, align 8
  call void @cmsSetDeviceClass(ptr noundef %23, i32 noundef 1835955314)
  %24 = load ptr, ptr %10, align 8
  call void @cmsSetColorSpace(ptr noundef %24, i32 noundef 1380401696)
  %25 = load ptr, ptr %10, align 8
  call void @cmsSetPCS(ptr noundef %25, i32 noundef 1482250784)
  %26 = load ptr, ptr %10, align 8
  call void @cmsSetHeaderRenderingIntent(ptr noundef %26, i32 noundef 0)
  %27 = load ptr, ptr %10, align 8
  %28 = call i32 @SetTextTags(ptr noundef %27, ptr noundef @.str)
  %29 = icmp ne i32 %28, 0
  br i1 %29, label %31, label %30

30:                                               ; preds = %21
  br label %221

31:                                               ; preds = %21
  %32 = load ptr, ptr %7, align 8
  %33 = icmp ne ptr %32, null
  br i1 %33, label %34, label %49

34:                                               ; preds = %31
  %35 = load ptr, ptr %10, align 8
  %36 = call ptr @cmsD50_XYZ()
  %37 = call i32 @cmsWriteTag(ptr noundef %35, i32 noundef 2004119668, ptr noundef %36)
  %38 = icmp ne i32 %37, 0
  br i1 %38, label %40, label %39

39:                                               ; preds = %34
  br label %221

40:                                               ; preds = %34
  %41 = load ptr, ptr %7, align 8
  call void @cmsxyY2XYZ(ptr noundef %15, ptr noundef %41)
  %42 = call ptr @cmsD50_XYZ()
  %43 = call i32 @_cmsAdaptationMatrix(ptr noundef %14, ptr noundef null, ptr noundef %15, ptr noundef %42)
  %44 = load ptr, ptr %10, align 8
  %45 = call i32 @cmsWriteTag(ptr noundef %44, i32 noundef 1667785060, ptr noundef %14)
  %46 = icmp ne i32 %45, 0
  br i1 %46, label %48, label %47

47:                                               ; preds = %40
  br label %221

48:                                               ; preds = %40
  br label %49

49:                                               ; preds = %48, %31
  %50 = load ptr, ptr %7, align 8
  %51 = icmp ne ptr %50, null
  br i1 %51, label %52, label %151

52:                                               ; preds = %49
  %53 = load ptr, ptr %8, align 8
  %54 = icmp ne ptr %53, null
  br i1 %54, label %55, label %151

55:                                               ; preds = %52
  %56 = load ptr, ptr %7, align 8
  %57 = getelementptr inbounds %struct.cmsCIExyY, ptr %56, i32 0, i32 0
  %58 = load double, ptr %57, align 8
  %59 = getelementptr inbounds %struct.cmsCIExyY, ptr %13, i32 0, i32 0
  store double %58, ptr %59, align 8
  %60 = load ptr, ptr %7, align 8
  %61 = getelementptr inbounds %struct.cmsCIExyY, ptr %60, i32 0, i32 1
  %62 = load double, ptr %61, align 8
  %63 = getelementptr inbounds %struct.cmsCIExyY, ptr %13, i32 0, i32 1
  store double %62, ptr %63, align 8
  %64 = getelementptr inbounds %struct.cmsCIExyY, ptr %13, i32 0, i32 2
  store double 1.000000e+00, ptr %64, align 8
  %65 = load ptr, ptr %8, align 8
  %66 = call i32 @_cmsBuildRGB2XYZtransferMatrix(ptr noundef %11, ptr noundef %13, ptr noundef %65)
  %67 = icmp ne i32 %66, 0
  br i1 %67, label %69, label %68

68:                                               ; preds = %55
  br label %221

69:                                               ; preds = %55
  %70 = getelementptr inbounds %struct.cmsMAT3, ptr %11, i32 0, i32 0
  %71 = getelementptr inbounds [3 x %struct.cmsVEC3], ptr %70, i64 0, i64 0
  %72 = getelementptr inbounds %struct.cmsVEC3, ptr %71, i32 0, i32 0
  %73 = getelementptr inbounds [3 x double], ptr %72, i64 0, i64 0
  %74 = load double, ptr %73, align 8
  %75 = getelementptr inbounds %struct.cmsCIEXYZTRIPLE, ptr %12, i32 0, i32 0
  %76 = getelementptr inbounds %struct.cmsCIEXYZ, ptr %75, i32 0, i32 0
  store double %74, ptr %76, align 8
  %77 = getelementptr inbounds %struct.cmsMAT3, ptr %11, i32 0, i32 0
  %78 = getelementptr inbounds [3 x %struct.cmsVEC3], ptr %77, i64 0, i64 1
  %79 = getelementptr inbounds %struct.cmsVEC3, ptr %78, i32 0, i32 0
  %80 = getelementptr inbounds [3 x double], ptr %79, i64 0, i64 0
  %81 = load double, ptr %80, align 8
  %82 = getelementptr inbounds %struct.cmsCIEXYZTRIPLE, ptr %12, i32 0, i32 0
  %83 = getelementptr inbounds %struct.cmsCIEXYZ, ptr %82, i32 0, i32 1
  store double %81, ptr %83, align 8
  %84 = getelementptr inbounds %struct.cmsMAT3, ptr %11, i32 0, i32 0
  %85 = getelementptr inbounds [3 x %struct.cmsVEC3], ptr %84, i64 0, i64 2
  %86 = getelementptr inbounds %struct.cmsVEC3, ptr %85, i32 0, i32 0
  %87 = getelementptr inbounds [3 x double], ptr %86, i64 0, i64 0
  %88 = load double, ptr %87, align 8
  %89 = getelementptr inbounds %struct.cmsCIEXYZTRIPLE, ptr %12, i32 0, i32 0
  %90 = getelementptr inbounds %struct.cmsCIEXYZ, ptr %89, i32 0, i32 2
  store double %88, ptr %90, align 8
  %91 = getelementptr inbounds %struct.cmsMAT3, ptr %11, i32 0, i32 0
  %92 = getelementptr inbounds [3 x %struct.cmsVEC3], ptr %91, i64 0, i64 0
  %93 = getelementptr inbounds %struct.cmsVEC3, ptr %92, i32 0, i32 0
  %94 = getelementptr inbounds [3 x double], ptr %93, i64 0, i64 1
  %95 = load double, ptr %94, align 8
  %96 = getelementptr inbounds %struct.cmsCIEXYZTRIPLE, ptr %12, i32 0, i32 1
  %97 = getelementptr inbounds %struct.cmsCIEXYZ, ptr %96, i32 0, i32 0
  store double %95, ptr %97, align 8
  %98 = getelementptr inbounds %struct.cmsMAT3, ptr %11, i32 0, i32 0
  %99 = getelementptr inbounds [3 x %struct.cmsVEC3], ptr %98, i64 0, i64 1
  %100 = getelementptr inbounds %struct.cmsVEC3, ptr %99, i32 0, i32 0
  %101 = getelementptr inbounds [3 x double], ptr %100, i64 0, i64 1
  %102 = load double, ptr %101, align 8
  %103 = getelementptr inbounds %struct.cmsCIEXYZTRIPLE, ptr %12, i32 0, i32 1
  %104 = getelementptr inbounds %struct.cmsCIEXYZ, ptr %103, i32 0, i32 1
  store double %102, ptr %104, align 8
  %105 = getelementptr inbounds %struct.cmsMAT3, ptr %11, i32 0, i32 0
  %106 = getelementptr inbounds [3 x %struct.cmsVEC3], ptr %105, i64 0, i64 2
  %107 = getelementptr inbounds %struct.cmsVEC3, ptr %106, i32 0, i32 0
  %108 = getelementptr inbounds [3 x double], ptr %107, i64 0, i64 1
  %109 = load double, ptr %108, align 8
  %110 = getelementptr inbounds %struct.cmsCIEXYZTRIPLE, ptr %12, i32 0, i32 1
  %111 = getelementptr inbounds %struct.cmsCIEXYZ, ptr %110, i32 0, i32 2
  store double %109, ptr %111, align 8
  %112 = getelementptr inbounds %struct.cmsMAT3, ptr %11, i32 0, i32 0
  %113 = getelementptr inbounds [3 x %struct.cmsVEC3], ptr %112, i64 0, i64 0
  %114 = getelementptr inbounds %struct.cmsVEC3, ptr %113, i32 0, i32 0
  %115 = getelementptr inbounds [3 x double], ptr %114, i64 0, i64 2
  %116 = load double, ptr %115, align 8
  %117 = getelementptr inbounds %struct.cmsCIEXYZTRIPLE, ptr %12, i32 0, i32 2
  %118 = getelementptr inbounds %struct.cmsCIEXYZ, ptr %117, i32 0, i32 0
  store double %116, ptr %118, align 8
  %119 = getelementptr inbounds %struct.cmsMAT3, ptr %11, i32 0, i32 0
  %120 = getelementptr inbounds [3 x %struct.cmsVEC3], ptr %119, i64 0, i64 1
  %121 = getelementptr inbounds %struct.cmsVEC3, ptr %120, i32 0, i32 0
  %122 = getelementptr inbounds [3 x double], ptr %121, i64 0, i64 2
  %123 = load double, ptr %122, align 8
  %124 = getelementptr inbounds %struct.cmsCIEXYZTRIPLE, ptr %12, i32 0, i32 2
  %125 = getelementptr inbounds %struct.cmsCIEXYZ, ptr %124, i32 0, i32 1
  store double %123, ptr %125, align 8
  %126 = getelementptr inbounds %struct.cmsMAT3, ptr %11, i32 0, i32 0
  %127 = getelementptr inbounds [3 x %struct.cmsVEC3], ptr %126, i64 0, i64 2
  %128 = getelementptr inbounds %struct.cmsVEC3, ptr %127, i32 0, i32 0
  %129 = getelementptr inbounds [3 x double], ptr %128, i64 0, i64 2
  %130 = load double, ptr %129, align 8
  %131 = getelementptr inbounds %struct.cmsCIEXYZTRIPLE, ptr %12, i32 0, i32 2
  %132 = getelementptr inbounds %struct.cmsCIEXYZ, ptr %131, i32 0, i32 2
  store double %130, ptr %132, align 8
  %133 = load ptr, ptr %10, align 8
  %134 = getelementptr inbounds %struct.cmsCIEXYZTRIPLE, ptr %12, i32 0, i32 0
  %135 = call i32 @cmsWriteTag(ptr noundef %133, i32 noundef 1918392666, ptr noundef %134)
  %136 = icmp ne i32 %135, 0
  br i1 %136, label %138, label %137

137:                                              ; preds = %69
  br label %221

138:                                              ; preds = %69
  %139 = load ptr, ptr %10, align 8
  %140 = getelementptr inbounds %struct.cmsCIEXYZTRIPLE, ptr %12, i32 0, i32 2
  %141 = call i32 @cmsWriteTag(ptr noundef %139, i32 noundef 1649957210, ptr noundef %140)
  %142 = icmp ne i32 %141, 0
  br i1 %142, label %144, label %143

143:                                              ; preds = %138
  br label %221

144:                                              ; preds = %138
  %145 = load ptr, ptr %10, align 8
  %146 = getelementptr inbounds %struct.cmsCIEXYZTRIPLE, ptr %12, i32 0, i32 1
  %147 = call i32 @cmsWriteTag(ptr noundef %145, i32 noundef 1733843290, ptr noundef %146)
  %148 = icmp ne i32 %147, 0
  br i1 %148, label %150, label %149

149:                                              ; preds = %144
  br label %221

150:                                              ; preds = %144
  br label %151

151:                                              ; preds = %150, %52, %49
  %152 = load ptr, ptr %9, align 8
  %153 = icmp ne ptr %152, null
  br i1 %153, label %154, label %209

154:                                              ; preds = %151
  %155 = load ptr, ptr %10, align 8
  %156 = load ptr, ptr %9, align 8
  %157 = getelementptr inbounds ptr, ptr %156, i64 0
  %158 = load ptr, ptr %157, align 8
  %159 = call i32 @cmsWriteTag(ptr noundef %155, i32 noundef 1918128707, ptr noundef %158)
  %160 = icmp ne i32 %159, 0
  br i1 %160, label %162, label %161

161:                                              ; preds = %154
  br label %221

162:                                              ; preds = %154
  %163 = load ptr, ptr %9, align 8
  %164 = getelementptr inbounds ptr, ptr %163, i64 1
  %165 = load ptr, ptr %164, align 8
  %166 = load ptr, ptr %9, align 8
  %167 = getelementptr inbounds ptr, ptr %166, i64 0
  %168 = load ptr, ptr %167, align 8
  %169 = icmp eq ptr %165, %168
  br i1 %169, label %170, label %176

170:                                              ; preds = %162
  %171 = load ptr, ptr %10, align 8
  %172 = call i32 @cmsLinkTag(ptr noundef %171, i32 noundef 1733579331, i32 noundef 1918128707)
  %173 = icmp ne i32 %172, 0
  br i1 %173, label %175, label %174

174:                                              ; preds = %170
  br label %221

175:                                              ; preds = %170
  br label %185

176:                                              ; preds = %162
  %177 = load ptr, ptr %10, align 8
  %178 = load ptr, ptr %9, align 8
  %179 = getelementptr inbounds ptr, ptr %178, i64 1
  %180 = load ptr, ptr %179, align 8
  %181 = call i32 @cmsWriteTag(ptr noundef %177, i32 noundef 1733579331, ptr noundef %180)
  %182 = icmp ne i32 %181, 0
  br i1 %182, label %184, label %183

183:                                              ; preds = %176
  br label %221

184:                                              ; preds = %176
  br label %185

185:                                              ; preds = %184, %175
  %186 = load ptr, ptr %9, align 8
  %187 = getelementptr inbounds ptr, ptr %186, i64 2
  %188 = load ptr, ptr %187, align 8
  %189 = load ptr, ptr %9, align 8
  %190 = getelementptr inbounds ptr, ptr %189, i64 0
  %191 = load ptr, ptr %190, align 8
  %192 = icmp eq ptr %188, %191
  br i1 %192, label %193, label %199

193:                                              ; preds = %185
  %194 = load ptr, ptr %10, align 8
  %195 = call i32 @cmsLinkTag(ptr noundef %194, i32 noundef 1649693251, i32 noundef 1918128707)
  %196 = icmp ne i32 %195, 0
  br i1 %196, label %198, label %197

197:                                              ; preds = %193
  br label %221

198:                                              ; preds = %193
  br label %208

199:                                              ; preds = %185
  %200 = load ptr, ptr %10, align 8
  %201 = load ptr, ptr %9, align 8
  %202 = getelementptr inbounds ptr, ptr %201, i64 2
  %203 = load ptr, ptr %202, align 8
  %204 = call i32 @cmsWriteTag(ptr noundef %200, i32 noundef 1649693251, ptr noundef %203)
  %205 = icmp ne i32 %204, 0
  br i1 %205, label %207, label %206

206:                                              ; preds = %199
  br label %221

207:                                              ; preds = %199
  br label %208

208:                                              ; preds = %207, %198
  br label %209

209:                                              ; preds = %208, %151
  %210 = load ptr, ptr %8, align 8
  %211 = icmp ne ptr %210, null
  br i1 %211, label %212, label %219

212:                                              ; preds = %209
  %213 = load ptr, ptr %10, align 8
  %214 = load ptr, ptr %8, align 8
  %215 = call i32 @cmsWriteTag(ptr noundef %213, i32 noundef 1667789421, ptr noundef %214)
  %216 = icmp ne i32 %215, 0
  br i1 %216, label %218, label %217

217:                                              ; preds = %212
  br label %221

218:                                              ; preds = %212
  br label %219

219:                                              ; preds = %218, %209
  %220 = load ptr, ptr %10, align 8
  store ptr %220, ptr %5, align 8
  br label %228

221:                                              ; preds = %217, %206, %197, %183, %174, %161, %149, %143, %137, %68, %47, %39, %30
  %222 = load ptr, ptr %10, align 8
  %223 = icmp ne ptr %222, null
  br i1 %223, label %224, label %227

224:                                              ; preds = %221
  %225 = load ptr, ptr %10, align 8
  %226 = call i32 @cmsCloseProfile(ptr noundef %225)
  br label %227

227:                                              ; preds = %224, %221
  store ptr null, ptr %5, align 8
  br label %228

228:                                              ; preds = %227, %219, %20
  %229 = load ptr, ptr %5, align 8
  ret ptr %229
}