; Function Attrs: nounwind uwtable
define hidden ptr @cmsCreateRGBProfileTHR(ptr noundef %0, ptr noundef %1, ptr noundef %2, ptr noundef readonly %3) local_unnamed_addr #0 {
  %5 = alloca %struct.cmsMAT3, align 8
  %6 = alloca %struct.cmsCIEXYZTRIPLE, align 8
  %7 = alloca %struct.cmsCIExyY, align 16
  %8 = alloca %struct.cmsMAT3, align 8
  %9 = alloca %struct.cmsCIEXYZ, align 8
  %10 = tail call ptr @cmsCreateProfilePlaceholder(ptr noundef %0) #7
  %.not = icmp eq ptr %10, null
  br i1 %.not, label %86, label %11

11:                                               ; preds = %4
  tail call void @cmsSetProfileVersion(ptr noundef nonnull %10, double noundef 4.400000e+00) #7
  tail call void @cmsSetDeviceClass(ptr noundef nonnull %10, i32 noundef 1835955314) #7
  tail call void @cmsSetColorSpace(ptr noundef nonnull %10, i32 noundef 1380401696) #7
  tail call void @cmsSetPCS(ptr noundef nonnull %10, i32 noundef 1482250784) #7
  tail call void @cmsSetHeaderRenderingIntent(ptr noundef nonnull %10, i32 noundef 0) #7
  %12 = tail call fastcc i32 @SetTextTags(ptr noundef nonnull %10, ptr noundef nonnull @.str)
  %.not48 = icmp eq i32 %12, 0
  br i1 %.not48, label %84, label %13

13:                                               ; preds = %11
  %.not63 = icmp eq ptr %1, null
  br i1 %.not63, label %.thread, label %15

.thread:                                          ; preds = %13
  %14 = icmp ne ptr %2, null
  br label %58

15:                                               ; preds = %13
  %16 = tail call ptr @cmsD50_XYZ() #7
  %17 = tail call i32 @cmsWriteTag(ptr noundef nonnull %10, i32 noundef 2004119668, ptr noundef %16) #7
  %.not49 = icmp eq i32 %17, 0
  br i1 %.not49, label %84, label %18

18:                                               ; preds = %15
  call void @cmsxyY2XYZ(ptr noundef nonnull %9, ptr noundef nonnull %1) #7
  %19 = call ptr @cmsD50_XYZ() #7
  %20 = call i32 @_cmsAdaptationMatrix(ptr noundef nonnull %8, ptr noundef null, ptr noundef nonnull %9, ptr noundef %19) #7
  %21 = call i32 @cmsWriteTag(ptr noundef nonnull %10, i32 noundef 1667785060, ptr noundef nonnull %8) #7
  %.not50 = icmp eq i32 %21, 0
  br i1 %.not50, label %84, label %22

22:                                               ; preds = %18
  %.not64 = icmp eq ptr %2, null
  br i1 %.not64, label %58, label %23

23:                                               ; preds = %22
  %24 = load <2 x double>, ptr %1, align 8
  store <2 x double> %24, ptr %7, align 16
  %25 = getelementptr inbounds i8, ptr %7, i64 16
  store double 1.000000e+00, ptr %25, align 16
  %26 = call i32 @_cmsBuildRGB2XYZtransferMatrix(ptr noundef nonnull %5, ptr noundef nonnull %7, ptr noundef nonnull %2) #7
  %.not51 = icmp eq i32 %26, 0
  br i1 %.not51, label %84, label %27

27:                                               ; preds = %23
  %28 = load double, ptr %5, align 8
  store double %28, ptr %6, align 8
  %29 = getelementptr inbounds i8, ptr %5, i64 24
  %30 = load double, ptr %29, align 8
  %31 = getelementptr inbounds i8, ptr %6, i64 8
  store double %30, ptr %31, align 8
  %32 = getelementptr inbounds i8, ptr %5, i64 48
  %33 = load double, ptr %32, align 8
  %34 = getelementptr inbounds i8, ptr %6, i64 16
  store double %33, ptr %34, align 8
  %35 = getelementptr inbounds i8, ptr %5, i64 8
  %36 = load double, ptr %35, align 8
  %37 = getelementptr inbounds i8, ptr %6, i64 24
  store double %36, ptr %37, align 8
  %38 = getelementptr inbounds i8, ptr %5, i64 32
  %39 = load double, ptr %38, align 8
  %40 = getelementptr inbounds i8, ptr %6, i64 32
  store double %39, ptr %40, align 8
  %41 = getelementptr inbounds i8, ptr %5, i64 56
  %42 = load double, ptr %41, align 8
  %43 = getelementptr inbounds i8, ptr %6, i64 40
  store double %42, ptr %43, align 8
  %44 = getelementptr inbounds i8, ptr %5, i64 16
  %45 = load double, ptr %44, align 8
  %46 = getelementptr inbounds i8, ptr %6, i64 48
  store double %45, ptr %46, align 8
  %47 = getelementptr inbounds i8, ptr %5, i64 40
  %48 = load double, ptr %47, align 8
  %49 = getelementptr inbounds i8, ptr %6, i64 56
  store double %48, ptr %49, align 8
  %50 = getelementptr inbounds i8, ptr %5, i64 64
  %51 = load double, ptr %50, align 8
  %52 = getelementptr inbounds i8, ptr %6, i64 64
  store double %51, ptr %52, align 8
  %53 = call i32 @cmsWriteTag(ptr noundef nonnull %10, i32 noundef 1918392666, ptr noundef nonnull %6) #7
  %.not52 = icmp eq i32 %53, 0
  br i1 %.not52, label %84, label %54

54:                                               ; preds = %27
  %55 = call i32 @cmsWriteTag(ptr noundef nonnull %10, i32 noundef 1649957210, ptr noundef nonnull %46) #7
  %.not53 = icmp eq i32 %55, 0
  br i1 %.not53, label %84, label %56

56:                                               ; preds = %54
  %57 = call i32 @cmsWriteTag(ptr noundef nonnull %10, i32 noundef 1733843290, ptr noundef nonnull %37) #7
  %.not54 = icmp eq i32 %57, 0
  br i1 %.not54, label %84, label %58

58:                                               ; preds = %.thread, %56, %22
  %59 = phi i1 [ %14, %.thread ], [ true, %56 ], [ false, %22 ]
  %.not55 = icmp eq ptr %3, null
  br i1 %.not55, label %81, label %60

60:                                               ; preds = %58
  %61 = load ptr, ptr %3, align 8
  %62 = call i32 @cmsWriteTag(ptr noundef nonnull %10, i32 noundef 1918128707, ptr noundef %61) #7
  %.not56 = icmp eq i32 %62, 0
  br i1 %.not56, label %84, label %63

63:                                               ; preds = %60
  %64 = getelementptr inbounds i8, ptr %3, i64 8
  %65 = load ptr, ptr %64, align 8
  %66 = load ptr, ptr %3, align 8
  %67 = icmp eq ptr %65, %66
  br i1 %67, label %68, label %70

68:                                               ; preds = %63
  %69 = call i32 @cmsLinkTag(ptr noundef nonnull %10, i32 noundef 1733579331, i32 noundef 1918128707) #7
  %.not58 = icmp eq i32 %69, 0
  br i1 %.not58, label %84, label %72

70:                                               ; preds = %63
  %71 = call i32 @cmsWriteTag(ptr noundef nonnull %10, i32 noundef 1733579331, ptr noundef %65) #7
  %.not57 = icmp eq i32 %71, 0
  br i1 %.not57, label %84, label %72

72:                                               ; preds = %70, %68
  %73 = getelementptr inbounds i8, ptr %3, i64 16
  %74 = load ptr, ptr %73, align 8
  %75 = load ptr, ptr %3, align 8
  %76 = icmp eq ptr %74, %75
  br i1 %76, label %77, label %79

77:                                               ; preds = %72
  %78 = call i32 @cmsLinkTag(ptr noundef nonnull %10, i32 noundef 1649693251, i32 noundef 1918128707) #7
  %.not60 = icmp eq i32 %78, 0
  br i1 %.not60, label %84, label %81

79:                                               ; preds = %72
  %80 = call i32 @cmsWriteTag(ptr noundef nonnull %10, i32 noundef 1649693251, ptr noundef %74) #7
  %.not59 = icmp eq i32 %80, 0
  br i1 %.not59, label %84, label %81

81:                                               ; preds = %77, %79, %58
  br i1 %59, label %82, label %86

82:                                               ; preds = %81
  %83 = call i32 @cmsWriteTag(ptr noundef nonnull %10, i32 noundef 1667789421, ptr noundef nonnull %2) #7
  %.not61 = icmp eq i32 %83, 0
  br i1 %.not61, label %84, label %86

84:                                               ; preds = %11, %15, %18, %23, %27, %54, %56, %60, %68, %70, %77, %79, %82
  %85 = call i32 @cmsCloseProfile(ptr noundef nonnull %10) #7
  br label %86

86:                                               ; preds = %81, %82, %4, %84
  %.0 = phi ptr [ null, %84 ], [ null, %4 ], [ %10, %82 ], [ %10, %81 ]
  ret ptr %.0
}